; Function Attrs: nounwind sspstrong uwtable
define internal void @pci_e1000_uninit(ptr noundef %dev) #0 {
entry:
  %call.i = tail call ptr @object_dynamic_cast_assert(ptr noundef %dev, ptr noundef nonnull @.str, ptr noundef nonnull @.str.5, i32 noundef 155, ptr noundef nonnull @__func__.E1000) #13
  %autoneg_timer = getelementptr inbounds nuw i8, ptr %call.i, i64 208520
  %0 = load ptr, ptr %autoneg_timer, align 8
  %tobool.not.i = icmp eq ptr %0, null
  br i1 %tobool.not.i, label %timer_free.exit, label %if.then.i

if.then.i:                                        ; preds = %entry
  tail call void @timer_del(ptr noundef nonnull %0) #13
  tail call void @g_free(ptr noundef nonnull %0) #13
  br label %timer_free.exit

timer_free.exit:                                  ; preds = %entry, %if.then.i
  %mit_timer = getelementptr inbounds nuw i8, ptr %call.i, i64 208528
  %1 = load ptr, ptr %mit_timer, align 16
  %tobool.not.i4 = icmp eq ptr %1, null
  br i1 %tobool.not.i4, label %timer_free.exit6, label %if.then.i5

if.then.i5:                                       ; preds = %timer_free.exit
  tail call void @timer_del(ptr noundef nonnull %1) #13
  tail call void @g_free(ptr noundef nonnull %1) #13
  br label %timer_free.exit6

timer_free.exit6:                                 ; preds = %timer_free.exit, %if.then.i5
  %flush_queue_timer = getelementptr inbounds nuw i8, ptr %call.i, i64 208544
  %2 = load ptr, ptr %flush_queue_timer, align 16
  %tobool.not.i7 = icmp eq ptr %2, null
  br i1 %tobool.not.i7, label %timer_free.exit9, label %if.then.i8

if.then.i8:                                       ; preds = %timer_free.exit6
  tail call void @timer_del(ptr noundef nonnull %2) #13
  tail call void @g_free(ptr noundef nonnull %2) #13
  br label %timer_free.exit9

timer_free.exit9:                                 ; preds = %timer_free.exit6, %if.then.i8
  %nic = getelementptr inbounds nuw i8, ptr %call.i, i64 2608
  %3 = load ptr, ptr %nic, align 16
  tail call void @qemu_del_nic(ptr noundef %3) #13
  ret void
}